target datalayout = "e-m:e-p270:32:32-p271:32:32-p272:64:64-i64:64-i128:128-f80:128-n8:16:32:64-S128"
target triple = "x86_64-pc-linux-gnu"

; Function Attrs: inlinehint mustprogress nounwind uwtable
define internal noundef i32 @_ZN11duckdb_zstdL10MEM_swap32Ej(i32 noundef %0) #7 {
  %2 = alloca i32, align 4
  store i32 %0, ptr %2, align 4, !tbaa !54
  %3 = load i32, ptr %2, align 4, !tbaa !54
  %4 = call i32 @llvm.bswap.i32(i32 %3)
  ret i32 %4
}

; Function Attrs: inlinehint mustprogress nounwind uwtable
define internal noundef i32 @_ZN11duckdb_zstdL10MEM_read32EPKv(ptr noundef %0) #7 {
  %2 = alloca ptr, align 8
  store ptr %0, ptr %2, align 8, !tbaa !33
  %3 = load ptr, ptr %2, align 8, !tbaa !33
  %4 = load i32, ptr %3, align 1, !tbaa !54
  ret i32 %4
}

; Function Attrs: inlinehint mustprogress nounwind uwtable
define internal noundef i32 @_ZN11duckdb_zstdL18MEM_isLittleEndianEv() #7 {
  ret i32 1
}

; Function Attrs: mustprogress uwtable
define noundef i32 @_ZN11duckdb_zstd21ZSTD_isSkippableFrameEPKvm(ptr noundef %0, i64 noundef %1) #0 {
  %3 = alloca i32, align 4
  %4 = alloca ptr, align 8
  %5 = alloca i64, align 8
  %6 = alloca i32, align 4
  %7 = alloca i32, align 4
  store ptr %0, ptr %4, align 8, !tbaa !33
  store i64 %1, ptr %5, align 8, !tbaa !34
  %8 = load i64, ptr %5, align 8, !tbaa !34
  %9 = icmp ult i64 %8, 4
  br i1 %9, label %10, label %11

10:                                               ; preds = %2
  store i32 0, ptr %3, align 4
  br label %22

11:                                               ; preds = %2
  call void @llvm.lifetime.start.p0(i64 4, ptr %6) #12
  %12 = load ptr, ptr %4, align 8, !tbaa !33
  %13 = call noundef i32 @_ZN11duckdb_zstdL12MEM_readLE32EPKv(ptr noundef %12)
  store i32 %13, ptr %6, align 4, !tbaa !54
  %14 = load i32, ptr %6, align 4, !tbaa !54
  %15 = and i32 %14, -16
  %16 = icmp eq i32 %15, 407710288
  br i1 %16, label %17, label %18

17:                                               ; preds = %11
  store i32 1, ptr %3, align 4
  store i32 1, ptr %7, align 4
  br label %19

18:                                               ; preds = %11
  store i32 0, ptr %7, align 4
  br label %19

19:                                               ; preds = %18, %17
  call void @llvm.lifetime.end.p0(i64 4, ptr %6) #12
  %20 = load i32, ptr %7, align 4
  switch i32 %20, label %24 [
    i32 0, label %21
    i32 1, label %22
  ]

21:                                               ; preds = %19
  store i32 0, ptr %3, align 4
  br label %22

22:                                               ; preds = %21, %19, %10
  %23 = load i32, ptr %3, align 4
  ret i32 %23

24:                                               ; preds = %19
  unreachable
}

; Function Attrs: mustprogress uwtable
define internal noundef i64 @_ZN11duckdb_zstdL22readSkippableFrameSizeEPKvm(ptr noundef %0, i64 noundef %1) #0 {
  %3 = alloca i64, align 8
  %4 = alloca ptr, align 8
  %5 = alloca i64, align 8
  %6 = alloca i64, align 8
  %7 = alloca i32, align 4
  %8 = alloca i32, align 4
  %9 = alloca i64, align 8
  store ptr %0, ptr %4, align 8, !tbaa !33
  store i64 %1, ptr %5, align 8, !tbaa !34
  call void @llvm.lifetime.start.p0(i64 8, ptr %6) #12
  store i64 8, ptr %6, align 8, !tbaa !34
  call void @llvm.lifetime.start.p0(i64 4, ptr %7) #12
  br label %10

10:                                               ; preds = %2
  %11 = load i64, ptr %5, align 8, !tbaa !34
  %12 = icmp ult i64 %11, 8
  br i1 %12, label %13, label %26

13:                                               ; preds = %10
  br label %14

14:                                               ; preds = %13
  br label %15

15:                                               ; preds = %14
  br label %16

16:                                               ; preds = %15
  br label %17

17:                                               ; preds = %16
  br label %18

18:                                               ; preds = %17
  br label %19

19:                                               ; preds = %18
  br label %20

20:                                               ; preds = %19
  br label %21

21:                                               ; preds = %20
  br label %22

22:                                               ; preds = %21
  br label %23

23:                                               ; preds = %22
  br label %24

24:                                               ; preds = %23
  br label %25

25:                                               ; preds = %24
  store i64 -72, ptr %3, align 8
  store i32 1, ptr %8, align 4
  br label %78

26:                                               ; preds = %10
  br label %27

27:                                               ; preds = %26
  br label %28

28:                                               ; preds = %27
  %29 = load ptr, ptr %4, align 8, !tbaa !33
  %30 = getelementptr inbounds i8, ptr %29, i64 4
  %31 = call noundef i32 @_ZN11duckdb_zstdL12MEM_readLE32EPKv(ptr noundef %30)
  store i32 %31, ptr %7, align 4, !tbaa !54
  br label %32

32:                                               ; preds = %28
  %33 = load i32, ptr %7, align 4, !tbaa !54
  %34 = add i32 %33, 8
  %35 = load i32, ptr %7, align 4, !tbaa !54
  %36 = icmp ult i32 %34, %35
  br i1 %36, label %37, label %50

37:                                               ; preds = %32
  br label %38

38:                                               ; preds = %37
  br label %39

39:                                               ; preds = %38
  br label %40

40:                                               ; preds = %39
  br label %41

41:                                               ; preds = %40
  br label %42

42:                                               ; preds = %41
  br label %43

43:                                               ; preds = %42
  br label %44

44:                                               ; preds = %43
  br label %45

45:                                               ; preds = %44
  br label %46

46:                                               ; preds = %45
  br label %47

47:                                               ; preds = %46
  br label %48

48:                                               ; preds = %47
  br label %49

49:                                               ; preds = %48
  store i64 -14, ptr %3, align 8
  store i32 1, ptr %8, align 4
  br label %78

50:                                               ; preds = %32
  br label %51

51:                                               ; preds = %50
  br label %52

52:                                               ; preds = %51
  call void @llvm.lifetime.start.p0(i64 8, ptr %9) #12
  %53 = load i32, ptr %7, align 4, !tbaa !54
  %54 = zext i32 %53 to i64
  %55 = add i64 8, %54
  store i64 %55, ptr %9, align 8, !tbaa !34
  br label %56

56:                                               ; preds = %52
  %57 = load i64, ptr %9, align 8, !tbaa !34
  %58 = load i64, ptr %5, align 8, !tbaa !34
  %59 = icmp ugt i64 %57, %58
  br i1 %59, label %60, label %73

60:                                               ; preds = %56
  br label %61

61:                                               ; preds = %60
  br label %62

62:                                               ; preds = %61
  br label %63

63:                                               ; preds = %62
  br label %64

64:                                               ; preds = %63
  br label %65

65:                                               ; preds = %64
  br label %66

66:                                               ; preds = %65
  br label %67

67:                                               ; preds = %66
  br label %68

68:                                               ; preds = %67
  br label %69

69:                                               ; preds = %68
  br label %70

70:                                               ; preds = %69
  br label %71

71:                                               ; preds = %70
  br label %72

72:                                               ; preds = %71
  store i64 -72, ptr %3, align 8
  store i32 1, ptr %8, align 4
  br label %77

73:                                               ; preds = %56
  br label %74

74:                                               ; preds = %73
  br label %75

75:                                               ; preds = %74
  %76 = load i64, ptr %9, align 8, !tbaa !34
  store i64 %76, ptr %3, align 8
  store i32 1, ptr %8, align 4
  br label %77

77:                                               ; preds = %75, %72
  call void @llvm.lifetime.end.p0(i64 8, ptr %9) #12
  br label %78

78:                                               ; preds = %77, %49, %25
  call void @llvm.lifetime.end.p0(i64 4, ptr %7) #12
  call void @llvm.lifetime.end.p0(i64 8, ptr %6) #12
  %79 = load i64, ptr %3, align 8
  ret i64 %79
}

; Function Attrs: inlinehint mustprogress uwtable
define internal noundef i32 @_ZN11duckdb_zstdL12MEM_readLE32EPKv(ptr noundef %0) #5 {
  %2 = alloca i32, align 4
  %3 = alloca ptr, align 8
  store ptr %0, ptr %3, align 8, !tbaa !33
  %4 = call noundef i32 @_ZN11duckdb_zstdL18MEM_isLittleEndianEv()
  %5 = icmp ne i32 %4, 0
  br i1 %5, label %6, label %9

6:                                                ; preds = %1
  %7 = load ptr, ptr %3, align 8, !tbaa !33
  %8 = call noundef i32 @_ZN11duckdb_zstdL10MEM_read32EPKv(ptr noundef %7)
  store i32 %8, ptr %2, align 4
  br label %13

9:                                                ; preds = %1
  %10 = load ptr, ptr %3, align 8, !tbaa !33
  %11 = call noundef i32 @_ZN11duckdb_zstdL10MEM_read32EPKv(ptr noundef %10)
  %12 = call noundef i32 @_ZN11duckdb_zstdL10MEM_swap32Ej(i32 noundef %11)
  store i32 %12, ptr %2, align 4
  br label %13

13:                                               ; preds = %9, %6
  %14 = load i32, ptr %2, align 4
  ret i32 %14
}

; Function Attrs: mustprogress uwtable
define noundef i64 @_ZN11duckdb_zstd23ZSTD_readSkippableFrameEPvmPjPKvm(ptr noundef %0, i64 noundef %1, ptr noundef %2, ptr noundef %3, i64 noundef %4) #0 {
  %6 = alloca i64, align 8
  %7 = alloca ptr, align 8
  %8 = alloca i64, align 8
  %9 = alloca ptr, align 8
  %10 = alloca ptr, align 8
  %11 = alloca i64, align 8
  %12 = alloca i32, align 4
  %13 = alloca i64, align 8
  %14 = alloca i64, align 8
  %15 = alloca i32, align 4
  store ptr %0, ptr %7, align 8, !tbaa !33
  store i64 %1, ptr %8, align 8, !tbaa !34
  store ptr %2, ptr %9, align 8, !tbaa !65
  store ptr %3, ptr %10, align 8, !tbaa !33
  store i64 %4, ptr %11, align 8, !tbaa !34
  br label %16

16:                                               ; preds = %5
  %17 = load i64, ptr %11, align 8, !tbaa !34
  %18 = icmp ult i64 %17, 8
  br i1 %18, label %19, label %28

19:                                               ; preds = %16
  br label %20

20:                                               ; preds = %19
  br label %21

21:                                               ; preds = %20
  br label %22

22:                                               ; preds = %21
  br label %23

23:                                               ; preds = %22
  br label %24

24:                                               ; preds = %23
  br label %25

25:                                               ; preds = %24
  br label %26

26:                                               ; preds = %25
  br label %27

27:                                               ; preds = %26
  store i64 -72, ptr %6, align 8
  br label %121

28:                                               ; preds = %16
  br label %29

29:                                               ; preds = %28
  call void @llvm.lifetime.start.p0(i64 4, ptr %12) #12
  %30 = load ptr, ptr %10, align 8, !tbaa !33
  %31 = call noundef i32 @_ZN11duckdb_zstdL12MEM_readLE32EPKv(ptr noundef %30)
  store i32 %31, ptr %12, align 4, !tbaa !54
  call void @llvm.lifetime.start.p0(i64 8, ptr %13) #12
  %32 = load ptr, ptr %10, align 8, !tbaa !33
  %33 = load i64, ptr %11, align 8, !tbaa !34
  %34 = call noundef i64 @_ZN11duckdb_zstdL22readSkippableFrameSizeEPKvm(ptr noundef %32, i64 noundef %33)
  store i64 %34, ptr %13, align 8, !tbaa !34
  call void @llvm.lifetime.start.p0(i64 8, ptr %14) #12
  %35 = load i64, ptr %13, align 8, !tbaa !34
  %36 = sub i64 %35, 8
  store i64 %36, ptr %14, align 8, !tbaa !34
  br label %37

37:                                               ; preds = %29
  %38 = load ptr, ptr %10, align 8, !tbaa !33
  %39 = load i64, ptr %11, align 8, !tbaa !34
  %40 = call noundef i32 @_ZN11duckdb_zstd21ZSTD_isSkippableFrameEPKvm(ptr noundef %38, i64 noundef %39)
  %41 = icmp ne i32 %40, 0
  br i1 %41, label %55, label %42

42:                                               ; preds = %37
  br label %43

43:                                               ; preds = %42
  br label %44

44:                                               ; preds = %43
  br label %45

45:                                               ; preds = %44
  br label %46

46:                                               ; preds = %45
  br label %47

47:                                               ; preds = %46
  br label %48

48:                                               ; preds = %47
  br label %49

49:                                               ; preds = %48
  br label %50

50:                                               ; preds = %49
  br label %51

51:                                               ; preds = %50
  br label %52

52:                                               ; preds = %51
  br label %53

53:                                               ; preds = %52
  br label %54

54:                                               ; preds = %53
  store i64 -14, ptr %6, align 8
  store i32 1, ptr %15, align 4
  br label %120

55:                                               ; preds = %37
  br label %56

56:                                               ; preds = %55
  br label %57

57:                                               ; preds = %56
  br label %58

58:                                               ; preds = %57
  %59 = load i64, ptr %13, align 8, !tbaa !34
  %60 = icmp ult i64 %59, 8
  br i1 %60, label %65, label %61

61:                                               ; preds = %58
  %62 = load i64, ptr %13, align 8, !tbaa !34
  %63 = load i64, ptr %11, align 8, !tbaa !34
  %64 = icmp ugt i64 %62, %63
  br i1 %64, label %65, label %78

65:                                               ; preds = %61, %58
  br label %66

66:                                               ; preds = %65
  br label %67

67:                                               ; preds = %66
  br label %68

68:                                               ; preds = %67
  br label %69

69:                                               ; preds = %68
  br label %70

70:                                               ; preds = %69
  br label %71

71:                                               ; preds = %70
  br label %72

72:                                               ; preds = %71
  br label %73

73:                                               ; preds = %72
  br label %74

74:                                               ; preds = %73
  br label %75

75:                                               ; preds = %74
  br label %76

76:                                               ; preds = %75
  br label %77

77:                                               ; preds = %76
  store i64 -72, ptr %6, align 8
  store i32 1, ptr %15, align 4
  br label %120

78:                                               ; preds = %61
  br label %79

79:                                               ; preds = %78
  br label %80

80:                                               ; preds = %79
  br label %81

81:                                               ; preds = %80
  %82 = load i64, ptr %14, align 8, !tbaa !34
  %83 = load i64, ptr %8, align 8, !tbaa !34
  %84 = icmp ugt i64 %82, %83
  br i1 %84, label %85, label %98

85:                                               ; preds = %81
  br label %86

86:                                               ; preds = %85
  br label %87

87:                                               ; preds = %86
  br label %88

88:                                               ; preds = %87
  br label %89

89:                                               ; preds = %88
  br label %90

90:                                               ; preds = %89
  br label %91

91:                                               ; preds = %90
  br label %92

92:                                               ; preds = %91
  br label %93

93:                                               ; preds = %92
  br label %94

94:                                               ; preds = %93
  br label %95

95:                                               ; preds = %94
  br label %96

96:                                               ; preds = %95
  br label %97

97:                                               ; preds = %96
  store i64 -70, ptr %6, align 8
  store i32 1, ptr %15, align 4
  br label %120

98:                                               ; preds = %81
  br label %99

99:                                               ; preds = %98
  br label %100

100:                                              ; preds = %99
  %101 = load i64, ptr %14, align 8, !tbaa !34
  %102 = icmp ugt i64 %101, 0
  br i1 %102, label %103, label %111

103:                                              ; preds = %100
  %104 = load ptr, ptr %7, align 8, !tbaa !33
  %105 = icmp ne ptr %104, null
  br i1 %105, label %106, label %111

106:                                              ; preds = %103
  %107 = load ptr, ptr %7, align 8, !tbaa !33
  %108 = load ptr, ptr %10, align 8, !tbaa !33
  %109 = getelementptr inbounds i8, ptr %108, i64 8
  %110 = load i64, ptr %14, align 8, !tbaa !34
  call void @llvm.memcpy.p0.p0.i64(ptr align 1 %107, ptr align 1 %109, i64 %110, i1 false)
  br label %111

111:                                              ; preds = %106, %103, %100
  %112 = load ptr, ptr %9, align 8, !tbaa !65
  %113 = icmp ne ptr %112, null
  br i1 %113, label %114, label %118

114:                                              ; preds = %111
  %115 = load i32, ptr %12, align 4, !tbaa !54
  %116 = sub i32 %115, 407710288
  %117 = load ptr, ptr %9, align 8, !tbaa !65
  store i32 %116, ptr %117, align 4, !tbaa !54
  br label %118

118:                                              ; preds = %114, %111
  %119 = load i64, ptr %14, align 8, !tbaa !34
  store i64 %119, ptr %6, align 8
  store i32 1, ptr %15, align 4
  br label %120

120:                                              ; preds = %118, %97, %77, %54
  call void @llvm.lifetime.end.p0(i64 8, ptr %14) #12
  call void @llvm.lifetime.end.p0(i64 8, ptr %13) #12
  call void @llvm.lifetime.end.p0(i64 4, ptr %12) #12
  br label %121

121:                                              ; preds = %120, %27
  %122 = load i64, ptr %6, align 8
  ret i64 %122
}