; Function Attrs: mustprogress nofree norecurse nosync nounwind willreturn memory(argmem: readwrite) uwtable
define noundef range(i64 -80, 4294967288) i64 @_ZN11duckdb_zstd23ZSTD_readSkippableFrameEPvmPjPKvm(ptr noundef writeonly captures(address_is_null) %0, i64 noundef %1, ptr noundef writeonly captures(address_is_null) %2, ptr noundef readonly captures(none) %3, i64 noundef %4) local_unnamed_addr #7 {
  %6 = icmp ult i64 %4, 8
  br i1 %6, label %26, label %_ZN11duckdb_zstd21ZSTD_isSkippableFrameEPKvm.exit

_ZN11duckdb_zstd21ZSTD_isSkippableFrameEPKvm.exit: ; preds = %5
  %.val = load i32, ptr %3, align 1, !tbaa !55
  %7 = getelementptr inbounds nuw i8, ptr %3, i64 4
  %.val.i = load i32, ptr %7, align 1, !tbaa !55
  %8 = icmp ugt i32 %.val.i, -9
  %9 = zext i32 %.val.i to i64
  %10 = add nuw nsw i64 %9, 8
  %11 = icmp ugt i64 %10, %4
  %..i = select i1 %11, i64 -72, i64 %10
  %.0.i = select i1 %8, i64 -14, i64 %..i
  %12 = add nsw i64 %.0.i, -8
  %13 = and i32 %.val, -16
  %.not.i.not = icmp eq i32 %13, 407710288
  br i1 %.not.i.not, label %14, label %26

14:                                               ; preds = %_ZN11duckdb_zstd21ZSTD_isSkippableFrameEPKvm.exit
  %15 = icmp ugt i64 %.0.i, %4
  br i1 %15, label %26, label %16

16:                                               ; preds = %14
  %17 = icmp ugt i64 %12, %1
  br i1 %17, label %26, label %18

18:                                               ; preds = %16
  %19 = icmp ne i64 %12, 0
  %20 = icmp ne ptr %0, null
  %or.cond = and i1 %20, %19
  br i1 %or.cond, label %21, label %23

21:                                               ; preds = %18
  %22 = getelementptr inbounds nuw i8, ptr %3, i64 8
  tail call void @llvm.memcpy.p0.p0.i64(ptr nonnull align 1 %0, ptr nonnull align 1 %22, i64 %12, i1 false)
  br label %23

23:                                               ; preds = %21, %18
  %.not27 = icmp eq ptr %2, null
  br i1 %.not27, label %26, label %24

24:                                               ; preds = %23
  %25 = add nsw i32 %.val, -407710288
  store i32 %25, ptr %2, align 4, !tbaa !55
  br label %26

26:                                               ; preds = %_ZN11duckdb_zstd21ZSTD_isSkippableFrameEPKvm.exit, %14, %16, %24, %23, %5
  %.0 = phi i64 [ -72, %5 ], [ -14, %_ZN11duckdb_zstd21ZSTD_isSkippableFrameEPKvm.exit ], [ -72, %14 ], [ -70, %16 ], [ %12, %24 ], [ %12, %23 ]
  ret i64 %.0
}